EXPORTS
	?ShowDownloading@CShowEngine@@QAEPAVCShowInfo@@XZ @ 1 NONAME ; class CShowInfo * CShowEngine::ShowDownloading(void)
	?SetActiveFeedInfo@CPodcastModel@@QAEXPAVCFeedInfo@@@Z @ 2 NONAME ; void CPodcastModel::SetActiveFeedInfo(class CFeedInfo *)
	?UpdateAllFeedsL@CFeedEngine@@QAEXH@Z @ 3 NONAME ; void CFeedEngine::UpdateAllFeedsL(int)
	?Uid@CShowInfo@@QBEIXZ @ 4 NONAME ; unsigned int CShowInfo::Uid(void) const
	?ExportFeedsL@CFeedEngine@@QAEHAAV?$TBuf@$0BAA@@@@Z @ 5 NONAME ; int CFeedEngine::ExportFeedsL(class TBuf<256> &)
	?ScaledBitmap@CImageHandler@@QAEPAVCFbsBitmap@@XZ @ 6 NONAME ; class CFbsBitmap * CImageHandler::ScaledBitmap(void)
	?NewLC@CShowInfo@@SAPAV1@I@Z @ 7 NONAME ; class CShowInfo * CShowInfo::NewLC(unsigned int)
	?GetShowsDownloadedL@CShowEngine@@QAEXAAV?$RPointerArray@VCShowInfo@@@@@Z @ 8 NONAME ; void CShowEngine::GetShowsDownloadedL(class RPointerArray<class CShowInfo> &)
	?RemoveAllFormatting@PodcastUtils@@SAXAAVTDes16@@@Z @ 9 NONAME ; void PodcastUtils::RemoveAllFormatting(class TDes16 &)
	?DeleteShowL@CShowEngine@@QAEXIH@Z @ 10 NONAME ; void CShowEngine::DeleteShowL(unsigned int, int)
	?MarkSelectionPlayedL@CPodcastModel@@QAEXXZ @ 11 NONAME ; void CPodcastModel::MarkSelectionPlayedL(void)
	?AddSearchResultL@CFeedEngine@@QAEXPAVCFeedInfo@@@Z @ 12 NONAME ; void CFeedEngine::AddSearchResultL(class CFeedInfo *)
	?ReplaceChar@PodcastUtils@@SAXAAVTDes16@@II@Z @ 13 NONAME ; void PodcastUtils::ReplaceChar(class TDes16 &, unsigned int, unsigned int)
	?NewLC@CImageHandler@@SAPAV1@AAVRFs@@AAVCPodcastModel@@@Z @ 14 NONAME ; class CImageHandler * CImageHandler::NewLC(class RFs &, class CPodcastModel &)
	?RemoveFeedL@CFeedEngine@@QAEXI@Z @ 15 NONAME ; void CFeedEngine::RemoveFeedL(unsigned int)
	?GetAllShowsL@CShowEngine@@QAEXAAV?$RPointerArray@VCShowInfo@@@@@Z @ 16 NONAME ; void CShowEngine::GetAllShowsL(class RPointerArray<class CShowInfo> &)
	?NewLC@CFeedInfo@@SAPAV1@XZ @ 17 NONAME ; class CFeedInfo * CFeedInfo::NewLC(void)
	?MetaDataReader@CShowEngine@@QAEAAVCMetaDataReader@@XZ @ 18 NONAME ; class CMetaDataReader & CShowEngine::MetaDataReader(void)
	?AddShowL@CShowEngine@@QAEXABVCShowInfo@@@Z @ 19 NONAME ; void CShowEngine::AddShowL(class CShowInfo const &)
	?MoveDownloadUpL@CShowEngine@@QAEXI@Z @ 20 NONAME ; void CShowEngine::MoveDownloadUpL(unsigned int)
	?SetSpecificIAP@CSettingsEngine@@QAEXH@Z @ 21 NONAME ; void CSettingsEngine::SetSpecificIAP(int)
	?RemoveDownloadL@CShowEngine@@QAEXI@Z @ 22 NONAME ; void CShowEngine::RemoveDownloadL(unsigned int)
	?AddFeedL@CFeedEngine@@QAEHABVCFeedInfo@@@Z @ 23 NONAME ; int CFeedEngine::AddFeedL(class CFeedInfo const &)
	?Title@CFeedInfo@@QBEABVTDesC16@@XZ @ 24 NONAME ; class TDesC16 const & CFeedInfo::Title(void) const
	?CopyL@CFeedInfo@@QBEPAV1@XZ @ 25 NONAME ; class CFeedInfo * CFeedInfo::CopyL(void) const
	?FileNameFromUrl@PodcastUtils@@SAXABVTDesC16@@AAV?$TBuf@$0BAA@@@@Z @ 26 NONAME ; void PodcastUtils::FileNameFromUrl(class TDesC16 const &, class TBuf<256> &)
	?SetCustomTitle@CFeedInfo@@QAEXXZ @ 27 NONAME ; void CFeedInfo::SetCustomTitle(void)
	?SetUpdateAutomatically@CSettingsEngine@@QAEXW4TAutoUpdateSetting@@@Z @ 28 NONAME ; void CSettingsEngine::SetUpdateAutomatically(enum TAutoUpdateSetting)
	?UpdateAutomatically@CSettingsEngine@@QAE?AW4TAutoUpdateSetting@@XZ @ 29 NONAME ; enum TAutoUpdateSetting CSettingsEngine::UpdateAutomatically(void)
	?ActiveFeedInfo@CPodcastModel@@QAEPAVCFeedInfo@@XZ @ 30 NONAME ; class CFeedInfo * CPodcastModel::ActiveFeedInfo(void)
	?DropDB@CPodcastModel@@QAEXXZ @ 31 NONAME ; void CPodcastModel::DropDB(void)
	?Position@CShowInfo@@QBE?AVTTimeIntervalMicroSeconds@@XZ @ 32 NONAME ; class TTimeIntervalMicroSeconds CShowInfo::Position(void) const
	?SetTrackNo@CShowInfo@@QAEXI@Z @ 33 NONAME ; void CShowInfo::SetTrackNo(unsigned int)
	?CustomTitle@CFeedInfo@@QBEHXZ @ 34 NONAME ; int CFeedInfo::CustomTitle(void) const
	?SetPubDate@CShowInfo@@QAEXVTTime@@@Z @ 35 NONAME ; void CShowInfo::SetPubDate(class TTime)
	?SetImageUrlL@CFeedInfo@@QAEXABVTDesC16@@@Z @ 36 NONAME ; void CFeedInfo::SetImageUrlL(class TDesC16 const &)
	?AddObserver@CConnectionEngine@@QAEXPAVMConnectionObserver@@@Z @ 37 NONAME ; void CConnectionEngine::AddObserver(class MConnectionObserver *)
	?UpdateFeedTime@CSettingsEngine@@QAE?AVTTime@@XZ @ 38 NONAME ; class TTime CSettingsEngine::UpdateFeedTime(void)
	?NewL@CShowEngine@@SAPAV1@AAVCPodcastModel@@@Z @ 39 NONAME ; class CShowEngine * CShowEngine::NewL(class CPodcastModel &)
	?ShowSize@CShowInfo@@QBEIXZ @ 40 NONAME ; unsigned int CShowInfo::ShowSize(void) const
	?SetDownloadSuspended@CSettingsEngine@@QAEXH@Z @ 41 NONAME ; void CSettingsEngine::SetDownloadSuspended(int)
	?LastError@CShowInfo@@QBEHXZ @ 42 NONAME ; int CShowInfo::LastError(void) const
	?GetShowByUidL@CShowEngine@@QAEPAVCShowInfo@@I@Z @ 43 NONAME ; class CShowInfo * CShowEngine::GetShowByUidL(unsigned int)
	?EnsureProperPathName@PodcastUtils@@SAXAAV?$TBuf@$0BAA@@@@Z @ 44 NONAME ; void PodcastUtils::EnsureProperPathName(class TBuf<256> &)
	?SetPlayTime@CShowInfo@@QAEXI@Z @ 45 NONAME ; void CShowInfo::SetPlayTime(unsigned int)
	?SetDownloadState@CShowInfo@@QAEXW4TDownloadState@@@Z @ 46 NONAME ; void CShowInfo::SetDownloadState(enum TDownloadState)
	?RemoveObserver@CFeedEngine@@QAEXPAVMFeedEngineObserver@@@Z @ 47 NONAME ; void CFeedEngine::RemoveObserver(class MFeedEngineObserver *)
	?ClientState@CFeedEngine@@QAE?AW4TClientState@@XZ @ 48 NONAME ; enum TClientState CFeedEngine::ClientState(void)
	?SetLastUpdated@CFeedInfo@@QAEXVTTime@@@Z @ 49 NONAME ; void CFeedInfo::SetLastUpdated(class TTime)
	?IsVideoShow@PodcastUtils@@SAHAAVTDesC16@@@Z @ 50 NONAME ; int PodcastUtils::IsVideoShow(class TDesC16 &)
	?UpdateShowL@CShowEngine@@QAEXAAVCShowInfo@@@Z @ 51 NONAME ; void CShowEngine::UpdateShowL(class CShowInfo &)
	?DownloadAutomatically@CSettingsEngine@@QAEHXZ @ 52 NONAME ; int CSettingsEngine::DownloadAutomatically(void)
	?NewL@CFeedInfo@@SAPAV1@XZ @ 53 NONAME ; class CFeedInfo * CFeedInfo::NewL(void)
	?SetDescriptionL@CFeedInfo@@QAEXABVTDesC16@@@Z @ 54 NONAME ; void CFeedInfo::SetDescriptionL(class TDesC16 const &)
	?SetShowSize@CShowInfo@@QAEXI@Z @ 55 NONAME ; void CShowInfo::SetShowSize(unsigned int)
	?SetImageFileNameL@CFeedInfo@@QAEXABVTDesC16@@PAVCPodcastModel@@@Z @ 56 NONAME ; void CFeedInfo::SetImageFileNameL(class TDesC16 const &, class CPodcastModel *)
	?SetFeedUid@CShowInfo@@QAEXI@Z @ 57 NONAME ; void CShowInfo::SetFeedUid(unsigned int)
	?LoadFileAndScaleL@CImageHandler@@QAEXPAVCFbsBitmap@@ABV?$TBuf@$0BAA@@@ABVTSize@@AAVMImageHandlerCallback@@IH@Z @ 58 NONAME ; void CImageHandler::LoadFileAndScaleL(class CFbsBitmap *, class TBuf<256> const &, class TSize const &, class MImageHandlerCallback &, unsigned int, int)
	?GetShowsDownloadingL@CShowEngine@@QAEXAAV?$RPointerArray@VCShowInfo@@@@@Z @ 59 NONAME ; void CShowEngine::GetShowsDownloadingL(class RPointerArray<class CShowInfo> &)
	?SetLastError@CShowInfo@@QAEXH@Z @ 60 NONAME ; void CShowInfo::SetLastError(int)
	?FeedEngine@CPodcastModel@@QAEAAVCFeedEngine@@XZ @ 61 NONAME ; class CFeedEngine & CPodcastModel::FeedEngine(void)
	?GetNumDownloadingShows@CShowEngine@@QAEHXZ @ 62 NONAME ; int CShowEngine::GetNumDownloadingShows(void)
	?ShowType@CShowInfo@@QBE?AW4TShowType@@XZ @ 63 NONAME ; enum TShowType CShowInfo::ShowType(void) const
	?Url@CShowInfo@@QBEABVTDesC16@@XZ @ 64 NONAME ; class TDesC16 const & CShowInfo::Url(void) const
	?TrackNo@CShowInfo@@QBEIXZ @ 65 NONAME ; unsigned int CShowInfo::TrackNo(void) const
	?BuildDate@CFeedInfo@@QBE?AVTTime@@XZ @ 66 NONAME ; class TTime CFeedInfo::BuildDate(void) const
	?DownloadState@CShowInfo@@QBE?AW4TDownloadState@@XZ @ 67 NONAME ; enum TDownloadState CShowInfo::DownloadState(void) const
	?GetNewShowsL@CShowEngine@@QAEXAAV?$RPointerArray@VCShowInfo@@@@@Z @ 68 NONAME ; void CShowEngine::GetNewShowsL(class RPointerArray<class CShowInfo> &)
	?DBGetShowByFileNameL@CShowEngine@@QAEPAVCShowInfo@@V?$TBuf@$0BAA@@@@Z @ 69 NONAME ; class CShowInfo * CShowEngine::DBGetShowByFileNameL(class TBuf<256>)
	?BaseDir@CSettingsEngine@@QAEAAV?$TBuf@$0BAA@@@XZ @ 70 NONAME ; class TBuf<256> & CSettingsEngine::BaseDir(void)
	?IAPIds@CPodcastModel@@QAEAAV?$RArray@VTPodcastIAPItem@@@@XZ @ 71 NONAME ; class RArray<class TPodcastIAPItem> & CPodcastModel::IAPIds(void)
	?SearchForFeedL@CFeedEngine@@QAEXAAVTDesC16@@@Z @ 72 NONAME ; void CFeedEngine::SearchForFeedL(class TDesC16 &)
	?SQLEncode@PodcastUtils@@SAXAAVTDes16@@@Z @ 73 NONAME ; void PodcastUtils::SQLEncode(class TDes16 &)
	?PlayingPodcast@CPodcastModel@@QAEPAVCShowInfo@@XZ @ 74 NONAME ; class CShowInfo * CPodcastModel::PlayingPodcast(void)
	??1CImageHandler@@UAE@XZ @ 75 NONAME ; CImageHandler::~CImageHandler(void)
	?SetBaseDir@CSettingsEngine@@QAEXAAV?$TBuf@$0BAA@@@@Z @ 76 NONAME ; void CSettingsEngine::SetBaseDir(class TBuf<256> &)
	??1CShowEngine@@UAE@XZ @ 77 NONAME ; CShowEngine::~CShowEngine(void)
	??0CShowInfo@@QAE@PAV0@@Z @ 78 NONAME ; CShowInfo::CShowInfo(class CShowInfo *)
	?RemoveObserver@CShowEngine@@QAEXPAVMShowEngineObserver@@@Z @ 79 NONAME ; void CShowEngine::RemoveObserver(class MShowEngineObserver *)
	?SaveSettingsL@CSettingsEngine@@QAEXXZ @ 80 NONAME ; void CSettingsEngine::SaveSettingsL(void)
	?Description@CFeedInfo@@QBEABVTDesC16@@XZ @ 81 NONAME ; class TDesC16 const & CFeedInfo::Description(void) const
	?FeedIcon@CFeedInfo@@QBEPAVCFbsBitmap@@XZ @ 82 NONAME ; class CFbsBitmap * CFeedInfo::FeedIcon(void) const
	?SNAPIds@CPodcastModel@@QAEAAV?$RArray@VTPodcastIAPItem@@@@XZ @ 83 NONAME ; class RArray<class TPodcastIAPItem> & CPodcastModel::SNAPIds(void)
	?PlayPausePodcastL@CPodcastModel@@QAEXPAVCShowInfo@@H@Z @ 84 NONAME ; void CPodcastModel::PlayPausePodcastL(class CShowInfo *, int)
	?FeedUid@CShowInfo@@QBEIXZ @ 85 NONAME ; unsigned int CShowInfo::FeedUid(void) const
	?DownloadSuspended@CSettingsEngine@@QAEHXZ @ 86 NONAME ; int CSettingsEngine::DownloadSuspended(void)
	?SetUrlL@CFeedInfo@@QAEXABVTDesC16@@@Z @ 87 NONAME ; void CFeedInfo::SetUrlL(class TDesC16 const &)
	?SetTitleL@CShowInfo@@QAEXABVTDesC16@@@Z @ 88 NONAME ; void CShowInfo::SetTitleL(class TDesC16 const &)
	?ImportFeedsL@CFeedEngine@@QAEXABVTDesC16@@@Z @ 89 NONAME ; void CFeedEngine::ImportFeedsL(class TDesC16 const &)
	?NotifyShowListUpdatedL@CShowEngine@@QAEXXZ @ 90 NONAME ; void CShowEngine::NotifyShowListUpdatedL(void)
	?ActiveShowList@CPodcastModel@@QAEAAV?$RPointerArray@VCShowInfo@@@@XZ @ 91 NONAME ; class RPointerArray<class CShowInfo> & CPodcastModel::ActiveShowList(void)
	?SNAPNames@CPodcastModel@@QAEPAVCDesC16ArrayFlat@@XZ @ 92 NONAME ; class CDesC16ArrayFlat * CPodcastModel::SNAPNames(void)
	?MoveDownloadDownL@CShowEngine@@QAEXI@Z @ 93 NONAME ; void CShowEngine::MoveDownloadDownL(unsigned int)
	?SettingsEngine@CPodcastModel@@QAEAAVCSettingsEngine@@XZ @ 94 NONAME ; class CSettingsEngine & CPodcastModel::SettingsEngine(void)
	?UpdateFeedL@CFeedEngine@@QAEHI@Z @ 95 NONAME ; int CFeedEngine::UpdateFeedL(unsigned int)
	?LastUpdated@CFeedInfo@@QBE?AVTTime@@XZ @ 96 NONAME ; class TTime CFeedInfo::LastUpdated(void) const
	?GetSearchResults@CFeedEngine@@QAEABV?$RPointerArray@VCFeedInfo@@@@XZ @ 97 NONAME ; class RPointerArray<class CFeedInfo> const & CFeedEngine::GetSearchResults(void)
	?GetNextShowByTrackL@CShowEngine@@QAEPAVCShowInfo@@PAV2@@Z @ 98 NONAME ; class CShowInfo * CShowEngine::GetNextShowByTrackL(class CShowInfo *)
	?UpdateSNAPListL@CPodcastModel@@QAEXXZ @ 99 NONAME ; void CPodcastModel::UpdateSNAPListL(void)
	?SetUid@CShowInfo@@QAEXI@Z @ 100 NONAME ; void CShowInfo::SetUid(unsigned int)
	?NewL@CImageHandler@@SAPAV1@AAVRFs@@AAVCPodcastModel@@@Z @ 101 NONAME ; class CImageHandler * CImageHandler::NewL(class RFs &, class CPodcastModel &)
	?Description@CShowInfo@@QBEABVTDesC16@@XZ @ 102 NONAME ; class TDesC16 const & CShowInfo::Description(void) const
	?PlayTime@CShowInfo@@QBEIXZ @ 103 NONAME ; unsigned int CShowInfo::PlayTime(void) const
	??1CFeedInfo@@UAE@XZ @ 104 NONAME ; CFeedInfo::~CFeedInfo(void)
	?GetShowsByFeedL@CShowEngine@@QAEXAAV?$RPointerArray@VCShowInfo@@@@I@Z @ 105 NONAME ; void CShowEngine::GetShowsByFeedL(class RPointerArray<class CShowInfo> &, unsigned int)
	?PlayState@CShowInfo@@QBE?AW4TPlayState@@XZ @ 106 NONAME ; enum TPlayState CShowInfo::PlayState(void) const
	?UpdateIAPListL@CPodcastModel@@QAEXXZ @ 107 NONAME ; void CPodcastModel::UpdateIAPListL(void)
	?SetLinkL@CFeedInfo@@QAEXABVTDesC16@@@Z @ 108 NONAME ; void CFeedInfo::SetLinkL(class TDesC16 const &)
	?DeletePlayedShowsL@CShowEngine@@QAEXAAV?$RPointerArray@VCShowInfo@@@@@Z @ 109 NONAME ; void CShowEngine::DeletePlayedShowsL(class RPointerArray<class CShowInfo> &)
	?GetSortedFeeds@CFeedEngine@@QAEABV?$RPointerArray@VCFeedInfo@@@@XZ @ 110 NONAME ; class RPointerArray<class CFeedInfo> const & CFeedEngine::GetSortedFeeds(void)
	??1CShowInfo@@UAE@XZ @ 111 NONAME ; CShowInfo::~CShowInfo(void)
	?OpmlParsingCompleteL@CFeedEngine@@QAEXHI@Z @ 112 NONAME ; void CFeedEngine::OpmlParsingCompleteL(int, unsigned int)
	??1CPodcastModel@@UAE@XZ @ 113 NONAME ; CPodcastModel::~CPodcastModel(void)
	?GetFeedInfoByUid@CFeedEngine@@QAEPAVCFeedInfo@@I@Z @ 114 NONAME ; class CFeedInfo * CFeedEngine::GetFeedInfoByUid(unsigned int)
	?SuspendDownloads@CShowEngine@@QAEXXZ @ 115 NONAME ; void CShowEngine::SuspendDownloads(void)
	?ActiveClientUid@CFeedEngine@@QAEIXZ @ 116 NONAME ; unsigned int CFeedEngine::ActiveClientUid(void)
	?SetUpdateFeedTime@CSettingsEngine@@QAEXVTTime@@@Z @ 117 NONAME ; void CSettingsEngine::SetUpdateFeedTime(class TTime)
	?FixProtocolsL@PodcastUtils@@SAXAAVTDes16@@@Z @ 118 NONAME ; void PodcastUtils::FixProtocolsL(class TDes16 &)
	?Link@CFeedInfo@@QBEABVTDesC16@@XZ @ 119 NONAME ; class TDesC16 const & CFeedInfo::Link(void) const
	?GetStatsByFeedL@CFeedEngine@@QAEXIAAI0@Z @ 120 NONAME ; void CFeedEngine::GetStatsByFeedL(unsigned int, unsigned int &, unsigned int &)
	?CheckForDeletedShows@CShowEngine@@QAEXI@Z @ 121 NONAME ; void CShowEngine::CheckForDeletedShows(unsigned int)
	?Url@CFeedInfo@@QBEABVTDesC16@@XZ @ 122 NONAME ; class TDesC16 const & CFeedInfo::Url(void) const
	?AddObserver@CFeedEngine@@QAEXPAVMFeedEngineObserver@@@Z @ 123 NONAME ; void CFeedEngine::AddObserver(class MFeedEngineObserver *)
	?SetPlayState@CShowInfo@@QAEXW4TPlayState@@@Z @ 124 NONAME ; void CShowInfo::SetPlayState(enum TPlayState)
	?SetLastError@CFeedInfo@@QAEXH@Z @ 125 NONAME ; void CFeedInfo::SetLastError(int)
	?NewL@CPodcastModel@@SAPAV1@XZ @ 126 NONAME ; class CPodcastModel * CPodcastModel::NewL(void)
	?SetBuildDate@CFeedInfo@@QAEXVTTime@@@Z @ 127 NONAME ; void CFeedInfo::SetBuildDate(class TTime)
	?ShowEngine@CPodcastModel@@QAEAAVCShowEngine@@XZ @ 128 NONAME ; class CShowEngine & CPodcastModel::ShowEngine(void)
	?RemoveAllDownloadsL@CShowEngine@@QAEXXZ @ 129 NONAME ; void CShowEngine::RemoveAllDownloadsL(void)
	?Uid@CFeedInfo@@QBEIXZ @ 130 NONAME ; unsigned int CFeedInfo::Uid(void) const
	?ReplaceString@PodcastUtils@@SAXAAVTDes16@@ABVTDesC16@@1@Z @ 131 NONAME ; void PodcastUtils::ReplaceString(class TDes16 &, class TDesC16 const &, class TDesC16 const &)
	?SetTitleL@CFeedInfo@@QAEXABVTDesC16@@@Z @ 132 NONAME ; void CFeedInfo::SetTitleL(class TDesC16 const &)
	?SetPosition@CShowInfo@@QAEXVTTimeIntervalMicroSeconds@@@Z @ 133 NONAME ; void CShowInfo::SetPosition(class TTimeIntervalMicroSeconds)
	?PubDate@CShowInfo@@QBE?BVTTime@@XZ @ 134 NONAME ; class TTime const CShowInfo::PubDate(void) const
	?CleanHtmlL@PodcastUtils@@SAXAAVTDes16@@@Z @ 135 NONAME ; void PodcastUtils::CleanHtmlL(class TDes16 &)
	?SpecificIAP@CSettingsEngine@@QAEHXZ @ 136 NONAME ; int CSettingsEngine::SpecificIAP(void)
	?CancelUpdateAllFeeds@CFeedEngine@@QAEXXZ @ 137 NONAME ; void CFeedEngine::CancelUpdateAllFeeds(void)
	?ConnectionEngine@CPodcastModel@@QAEAAVCConnectionEngine@@XZ @ 138 NONAME ; class CConnectionEngine & CPodcastModel::ConnectionEngine(void)
	?ResumeDownloadsL@CShowEngine@@QAEXXZ @ 139 NONAME ; void CShowEngine::ResumeDownloadsL(void)
	?FileName@CShowInfo@@QBEABVTDesC16@@XZ @ 140 NONAME ; class TDesC16 const & CShowInfo::FileName(void) const
	?AddDownloadL@CShowEngine@@QAEXAAVCShowInfo@@@Z @ 141 NONAME ; void CShowEngine::AddDownloadL(class CShowInfo &)
	?UpdateFeedInterval@CSettingsEngine@@QAEHXZ @ 142 NONAME ; int CSettingsEngine::UpdateFeedInterval(void)
	?IAPNames@CPodcastModel@@QAEPAVCDesC16ArrayFlat@@XZ @ 143 NONAME ; class CDesC16ArrayFlat * CPodcastModel::IAPNames(void)
	?LastError@CFeedInfo@@QBEHXZ @ 144 NONAME ; int CFeedInfo::LastError(void) const
	?SetFileNameL@CShowInfo@@QAEXABVTDesC16@@@Z @ 145 NONAME ; void CShowInfo::SetFileNameL(class TDesC16 const &)
	?XMLEncode@PodcastUtils@@SAXAAVTDes16@@@Z @ 146 NONAME ; void PodcastUtils::XMLEncode(class TDes16 &)
	?SetPlayingPodcast@CPodcastModel@@QAEXPAVCShowInfo@@@Z @ 147 NONAME ; void CPodcastModel::SetPlayingPodcast(class CShowInfo *)
	?SetUrlL@CShowInfo@@QAEXABVTDesC16@@@Z @ 148 NONAME ; void CShowInfo::SetUrlL(class TDesC16 const &)
	?Title@CShowInfo@@QBEABVTDesC16@@XZ @ 149 NONAME ; class TDesC16 const & CShowInfo::Title(void) const
	?DeleteOldShowsByFeedL@CShowEngine@@QAEXI@Z @ 150 NONAME ; void CShowEngine::DeleteOldShowsByFeedL(unsigned int)
	?GetShowsDownloadingL@CPodcastModel@@QAEXXZ @ 151 NONAME ; void CPodcastModel::GetShowsDownloadingL(void)
	?ImageUrl@CFeedInfo@@QBEABVTDesC16@@XZ @ 152 NONAME ; class TDesC16 const & CFeedInfo::ImageUrl(void) const
	?SetDescriptionL@CShowInfo@@QAEXABVTDesC16@@@Z @ 153 NONAME ; void CShowInfo::SetDescriptionL(class TDesC16 const &)
	?GetShowsByFeedL@CPodcastModel@@QAEXI@Z @ 154 NONAME ; void CPodcastModel::GetShowsByFeedL(unsigned int)
	?ImageHandler@CPodcastModel@@QAEAAVCImageHandler@@XZ @ 155 NONAME ; class CImageHandler & CPodcastModel::ImageHandler(void)
	?UpdateFeedInfoL@CFeedEngine@@QAEXPAVCFeedInfo@@@Z @ 156 NONAME ; void CFeedEngine::UpdateFeedInfoL(class CFeedInfo *)
	?SetUpdateFeedInterval@CSettingsEngine@@QAEXH@Z @ 157 NONAME ; void CSettingsEngine::SetUpdateFeedInterval(int)
	?DeleteAllShowsByFeedL@CShowEngine@@QAEXIH@Z @ 158 NONAME ; void CShowEngine::DeleteAllShowsByFeedL(unsigned int, int)
	?NewL@CShowInfo@@SAPAV1@I@Z @ 159 NONAME ; class CShowInfo * CShowInfo::NewL(unsigned int)
	?IsFirstStartup@CPodcastModel@@QAEHXZ @ 160 NONAME ; int CPodcastModel::IsFirstStartup(void)
	?SetDownloadAutomatically@CSettingsEngine@@QAEXH@Z @ 161 NONAME ; void CSettingsEngine::SetDownloadAutomatically(int)
	?SetFeedIcon@CFeedInfo@@QAEXPAVCFbsBitmap@@@Z @ 162 NONAME ; void CFeedInfo::SetFeedIcon(class CFbsBitmap *)
	?SetShowType@CShowInfo@@QAEXW4TShowType@@@Z @ 163 NONAME ; void CShowInfo::SetShowType(enum TShowType)
	?GetMimeType@CShowEngine@@QAEXABVTDesC16@@AAVTDes16@@@Z @ 164 NONAME ; void CShowEngine::GetMimeType(class TDesC16 const &, class TDes16 &)
	?ImageFileName@CFeedInfo@@QBEABVTDesC16@@XZ @ 165 NONAME ; class TDesC16 const & CFeedInfo::ImageFileName(void) const
	?AddObserver@CShowEngine@@QAEXPAVMShowEngineObserver@@@Z @ 166 NONAME ; void CShowEngine::AddObserver(class MShowEngineObserver *)

